(dp1
I1
S'accordion'
p2
sI2
S'airplane'
p3
sI3
S'ant'
p4
sI4
S'antelope'
p5
sI5
S'apple'
p6
sI6
S'armadillo'
p7
sI7
S'artichoke'
p8
sI8
S'ax'
p9
sI9
S'baby bed'
p10
sI10
S'backpack'
p11
sI11
S'bagel'
p12
sI12
S'balance beam'
p13
sI13
S'banana'
p14
sI14
S'Band Aid'
p15
sI15
S'banjo'
p16
sI16
S'baseball'
p17
sI17
S'basketball'
p18
sI18
S'bathing cap'
p19
sI19
S'beaker'
p20
sI20
S'bear'
p21
sI21
S'bee'
p22
sI22
S'bell pepper'
p23
sI23
S'bench'
p24
sI24
S'bicycle'
p25
sI25
S'binder'
p26
sI26
S'bird'
p27
sI27
S'bookcase'
p28
sI28
S'bow'
p29
sI29
S'bow tie'
p30
sI30
S'bowl'
p31
sI31
S'brassiere'
p32
sI32
S'burrito'
p33
sI33
S'bus'
p34
sI34
S'butterfly'
p35
sI35
S'camel'
p36
sI36
S'can opener'
p37
sI37
S'car'
p38
sI38
S'cart'
p39
sI39
S'cattle'
p40
sI40
S'cello'
p41
sI41
S'centipede'
p42
sI42
S'chain saw'
p43
sI43
S'chair'
p44
sI44
S'chime'
p45
sI45
S'cocktail shaker'
p46
sI46
S'coffee maker'
p47
sI47
S'computer keyboard'
p48
sI48
S'mouse'
p49
sI49
S'corkscrew'
p50
sI50
S'cream'
p51
sI51
S'croquet ball'
p52
sI52
S'crutch'
p53
sI53
S'cucumber'
p54
sI54
S'mug'
p55
sI55
S'diaper'
p56
sI56
S'digital clock'
p57
sI57
S'dishwasher'
p58
sI58
S'dog'
p59
sI59
S'domestic cat'
p60
sI60
S'dragonfly'
p61
sI61
S'drum'
p62
sI62
S'dumbbell'
p63
sI63
S'electric fan'
p64
sI64
S'elephant'
p65
sI65
S'face powder'
p66
sI66
S'fig'
p67
sI67
S'file'
p68
sI68
S'pot'
p69
sI69
S'flute'
p70
sI70
S'fox'
p71
sI71
S'French horn'
p72
sI72
S'frog'
p73
sI73
S'frying pan'
p74
sI74
S'giant panda'
p75
sI75
S'goldfish'
p76
sI76
S'golf ball'
p77
sI77
S'golfcart'
p78
sI78
S'guacamole'
p79
sI79
S'guitar'
p80
sI80
S'hand blower'
p81
sI81
S'hair spray'
p82
sI82
S'hamburger'
p83
sI83
S'hammer'
p84
sI84
S'hamster'
p85
sI85
S'harmonica'
p86
sI86
S'harp'
p87
sI87
S'cowboy hat'
p88
sI88
S'head cabbage'
p89
sI89
S'helmet'
p90
sI90
S'hippopotamus'
p91
sI91
S'horizontal bar'
p92
sI92
S'horse'
p93
sI93
S'hotdog'
p94
sI94
S'iPod'
p95
sI95
S'isopod'
p96
sI96
S'jellyfish'
p97
sI97
S'koala'
p98
sI98
S'ladle'
p99
sI99
S'ladybug'
p100
sI100
S'lamp'
p101
sI101
S'laptop'
p102
sI102
S'lemon'
p103
sI103
S'lion'
p104
sI104
S'lipstick'
p105
sI105
S'lizard'
p106
sI106
S'lobster'
p107
sI107
S'maillot'
p108
sI108
S'maraca'
p109
sI109
S'microphone'
p110
sI110
S'microwave'
p111
sI111
S'milk can'
p112
sI112
S'miniskirt'
p113
sI113
S'monkey'
p114
sI114
S'motorcycle'
p115
sI115
S'mushroom'
p116
sI116
S'nail'
p117
sI117
S'neck brace'
p118
sI118
S'oboe'
p119
sI119
S'orange'
p120
sI120
S'otter'
p121
sI121
S'pencil box'
p122
sI122
S'pencil sharpener'
p123
sI123
S'perfume'
p124
sI124
S'person'
p125
sI125
S'piano'
p126
sI126
S'pineapple'
p127
sI127
S'ping-pong ball'
p128
sI128
S'pitcher'
p129
sI129
S'pizza'
p130
sI130
S'plastic bag'
p131
sI131
S'plate rack'
p132
sI132
S'pomegranate'
p133
sI133
S'ice lolly'
p134
sI134
S'porcupine'
p135
sI135
S'power drill'
p136
sI136
S'pretzel'
p137
sI137
S'printer'
p138
sI138
S'puck'
p139
sI139
S'punching bag'
p140
sI140
S'purse'
p141
sI141
S'rabbit'
p142
sI142
S'racket'
p143
sI143
S'ray'
p144
sI144
S'lesser panda'
p145
sI145
S'refrigerator'
p146
sI146
S'remote control'
p147
sI147
S'rubber eraser'
p148
sI148
S'rugby ball'
p149
sI149
S'rule'
p150
sI150
S'saltshaker'
p151
sI151
S'sax'
p152
sI152
S'scorpion'
p153
sI153
S'screwdriver'
p154
sI154
S'seal'
p155
sI155
S'sheep'
p156
sI156
S'ski'
p157
sI157
S'skunk'
p158
sI158
S'snail'
p159
sI159
S'snake'
p160
sI160
S'snowmobile'
p161
sI161
S'snowplow'
p162
sI162
S'soap dispenser'
p163
sI163
S'soccer ball'
p164
sI164
S'sofa'
p165
sI165
S'spatula'
p166
sI166
S'squirrel'
p167
sI167
S'starfish'
p168
sI168
S'stethoscope'
p169
sI169
S'stove'
p170
sI170
S'strainer'
p171
sI171
S'strawberry'
p172
sI172
S'stretcher'
p173
sI173
S'sunglasses'
p174
sI174
S'swimming trunks'
p175
sI175
S'swine'
p176
sI176
S'syringe'
p177
sI177
S'table'
p178
sI178
S'tape player'
p179
sI179
S'tennis ball'
p180
sI180
S'tick'
p181
sI181
S'Windsor tie'
p182
sI182
S'tiger'
p183
sI183
S'toaster'
p184
sI184
S'traffic light'
p185
sI185
S'train'
p186
sI186
S'trombone'
p187
sI187
S'cornet'
p188
sI188
S'turtle'
p189
sI189
S'display'
p190
sI190
S'unicycle'
p191
sI191
S'vacuum'
p192
sI192
S'violin'
p193
sI193
S'volleyball'
p194
sI194
S'waffle iron'
p195
sI195
S'washer'
p196
sI196
S'water bottle'
p197
sI197
S'vessel'
p198
sI198
S'whale'
p199
sI199
S'wine bottle'
p200
sI200
S'zebra'
p201
s.